; ModuleID = '60/1162.c'
source_filename = "60/1162.c"
target datalayout = "e-m:e-p270:32:32-p271:32:32-p272:64:64-i64:64-f80:128-n8:16:32:64-S128"
target triple = "x86_64-pc-linux-gnu"

@.str = private unnamed_addr constant [3 x i8] c"%d\00", align 1
@.str.1 = private unnamed_addr constant [7 x i8] c"%d %d\0A\00", align 1
@.str.2 = private unnamed_addr constant [6 x i8] c"empty\00", align 1

; Function Attrs: noinline nounwind uwtable
define dso_local i32 @main() #0 {
  %1 = alloca i32, align 4
  %2 = alloca i32, align 4
  %3 = alloca i32, align 4
  %4 = alloca i32, align 4
  %5 = alloca i32, align 4
  %6 = alloca i32, align 4
  %7 = alloca i32, align 4
  store i32 0, i32* %1, align 4
  %8 = call i32 (i8*, ...) @__isoc99_scanf(i8* getelementptr inbounds ([3 x i8], [3 x i8]* @.str, i64 0, i64 0), i32* %2)
  %9 = load i32, i32* %2, align 4
  %10 = icmp sge i32 %9, 5
  br i1 %10, label %11, label %72

11:                                               ; preds = %0
  store i32 3, i32* %5, align 4
  br label %12

12:                                               ; preds = %68, %11
  %13 = load i32, i32* %5, align 4
  %14 = load i32, i32* %2, align 4
  %15 = sub nsw i32 %14, 1
  %16 = icmp slt i32 %13, %15
  br i1 %16, label %17, label %71

17:                                               ; preds = %12
  store i32 0, i32* %3, align 4
  store i32 0, i32* %4, align 4
  store i32 2, i32* %6, align 4
  br label %18

18:                                               ; preds = %31, %17
  %19 = load i32, i32* %6, align 4
  %20 = load i32, i32* %5, align 4
  %21 = icmp slt i32 %19, %20
  br i1 %21, label %22, label %34

22:                                               ; preds = %18
  %23 = load i32, i32* %5, align 4
  %24 = load i32, i32* %6, align 4
  %25 = srem i32 %23, %24
  %26 = icmp ne i32 %25, 0
  br i1 %26, label %27, label %30

27:                                               ; preds = %22
  %28 = load i32, i32* %3, align 4
  %29 = add nsw i32 %28, 1
  store i32 %29, i32* %3, align 4
  br label %30

30:                                               ; preds = %27, %22
  br label %31

31:                                               ; preds = %30
  %32 = load i32, i32* %6, align 4
  %33 = add nsw i32 %32, 1
  store i32 %33, i32* %6, align 4
  br label %18

34:                                               ; preds = %18
  %35 = load i32, i32* %3, align 4
  %36 = load i32, i32* %5, align 4
  %37 = sub nsw i32 %36, 2
  %38 = icmp eq i32 %35, %37
  br i1 %38, label %39, label %67

39:                                               ; preds = %34
  %40 = load i32, i32* %5, align 4
  %41 = add nsw i32 %40, 2
  store i32 %41, i32* %7, align 4
  store i32 2, i32* %6, align 4
  br label %42

42:                                               ; preds = %55, %39
  %43 = load i32, i32* %6, align 4
  %44 = load i32, i32* %7, align 4
  %45 = icmp slt i32 %43, %44
  br i1 %45, label %46, label %58

46:                                               ; preds = %42
  %47 = load i32, i32* %7, align 4
  %48 = load i32, i32* %6, align 4
  %49 = srem i32 %47, %48
  %50 = icmp ne i32 %49, 0
  br i1 %50, label %51, label %54

51:                                               ; preds = %46
  %52 = load i32, i32* %4, align 4
  %53 = add nsw i32 %52, 1
  store i32 %53, i32* %4, align 4
  br label %54

54:                                               ; preds = %51, %46
  br label %55

55:                                               ; preds = %54
  %56 = load i32, i32* %6, align 4
  %57 = add nsw i32 %56, 1
  store i32 %57, i32* %6, align 4
  br label %42

58:                                               ; preds = %42
  %59 = load i32, i32* %4, align 4
  %60 = load i32, i32* %5, align 4
  %61 = icmp eq i32 %59, %60
  br i1 %61, label %62, label %66

62:                                               ; preds = %58
  %63 = load i32, i32* %5, align 4
  %64 = load i32, i32* %7, align 4
  %65 = call i32 (i8*, ...) @printf(i8* getelementptr inbounds ([7 x i8], [7 x i8]* @.str.1, i64 0, i64 0), i32 %63, i32 %64)
  br label %66

66:                                               ; preds = %62, %58
  br label %67

67:                                               ; preds = %66, %34
  br label %68

68:                                               ; preds = %67
  %69 = load i32, i32* %5, align 4
  %70 = add nsw i32 %69, 1
  store i32 %70, i32* %5, align 4
  br label %12

71:                                               ; preds = %12
  br label %72

72:                                               ; preds = %71, %0
  %73 = load i32, i32* %2, align 4
  %74 = icmp slt i32 %73, 5
  br i1 %74, label %75, label %77

75:                                               ; preds = %72
  %76 = call i32 (i8*, ...) @printf(i8* getelementptr inbounds ([6 x i8], [6 x i8]* @.str.2, i64 0, i64 0))
  br label %77

77:                                               ; preds = %75, %72
  ret i32 0
}

declare dso_local i32 @__isoc99_scanf(i8*, ...) #1

declare dso_local i32 @printf(i8*, ...) #1


!llvm.module.flags = !{!0}
!llvm.ident = !{!1}

!0 = !{i32 1, !"wchar_size", i32 4}
!1 = !{!"clang version 10.0.0-4ubuntu1 "}
